target datalayout = "e-m:e-p270:32:32-p271:32:32-p272:64:64-i64:64-i128:128-f80:128-n8:16:32:64-S128"
target triple = "x86_64-pc-linux-gnu"

%struct.OptContext = type { ptr, ptr, %struct.TCGTempSet, %struct.RBRootLeftCached, %struct.anon, i32 }
%struct.TCGTempSet = type { [8 x i64] }
%struct.RBRootLeftCached = type { %struct.RBRoot, ptr }
%struct.RBRoot = type { ptr }
%struct.anon = type { ptr, ptr }
%struct.TCGTemp = type { i64, i64, ptr, i64, ptr, i64, ptr }
%struct.QTailQLink = type { ptr, ptr }
%struct.TCGOp = type { i32, i32, %union.anon.2, [2 x i32], [0 x i64] }
%union.anon.2 = type { %struct.QTailQLink }
%struct.TempOptInfo = type { i8, ptr, ptr, %struct.anon.3, i64, i64, i64 }
%struct.anon.3 = type { ptr, ptr }
%struct.MemCopyInfo = type { %struct.IntervalTreeNode, %struct.anon.4, ptr, i32 }
%struct.IntervalTreeNode = type { %struct.RBNode, i64, i64, i64 }
%struct.RBNode = type { i64, ptr, ptr }
%struct.anon.4 = type { ptr }

@tcg_ctx = external thread_local global ptr, align 8
@.str = private unnamed_addr constant [23 x i8] c"../qemu/tcg/optimize.c\00", align 1
@tcg_env = external global ptr, align 8
@__func__.fold_tcg_st = private unnamed_addr constant [12 x i8] c"fold_tcg_st\00", align 1

; Function Attrs: inlinehint nounwind sspstrong uwtable
define internal ptr @ts_info(ptr noundef %0) #3 {
  %2 = alloca ptr, align 8
  store ptr %0, ptr %2, align 8
  %3 = load ptr, ptr %2, align 8
  %4 = getelementptr inbounds nuw %struct.TCGTemp, ptr %3, i32 0, i32 6
  %5 = load ptr, ptr %4, align 8
  ret ptr %5
}

; Function Attrs: inlinehint nounwind sspstrong uwtable
define internal ptr @tcgv_i32_temp(ptr noundef %0) #3 {
  %2 = alloca ptr, align 8
  store ptr %0, ptr %2, align 8
  %3 = call align 8 ptr @llvm.threadlocal.address.p0(ptr align 8 @tcg_ctx)
  %4 = load ptr, ptr %3, align 8
  %5 = load ptr, ptr %2, align 8
  %6 = ptrtoint ptr %5 to i64
  %7 = getelementptr inbounds nuw i8, ptr %4, i64 %6
  ret ptr %7
}

; Function Attrs: nounwind sspstrong uwtable
define internal void @remove_mem_copy(ptr noundef %0, ptr noundef %1) #0 {
  %3 = alloca ptr, align 8
  %4 = alloca ptr, align 8
  %5 = alloca ptr, align 8
  %6 = alloca ptr, align 8
  %7 = alloca ptr, align 8
  %8 = alloca ptr, align 8
  store ptr %0, ptr %3, align 8
  store ptr %1, ptr %4, align 8
  call void @llvm.lifetime.start.p0(i64 8, ptr %5) #13
  %9 = load ptr, ptr %4, align 8
  %10 = getelementptr inbounds nuw %struct.MemCopyInfo, ptr %9, i32 0, i32 2
  %11 = load ptr, ptr %10, align 8
  store ptr %11, ptr %5, align 8
  call void @llvm.lifetime.start.p0(i64 8, ptr %6) #13
  %12 = load ptr, ptr %5, align 8
  %13 = call ptr @ts_info(ptr noundef %12)
  store ptr %13, ptr %6, align 8
  %14 = load ptr, ptr %4, align 8
  %15 = getelementptr inbounds nuw %struct.MemCopyInfo, ptr %14, i32 0, i32 0
  %16 = load ptr, ptr %3, align 8
  %17 = getelementptr inbounds nuw %struct.OptContext, ptr %16, i32 0, i32 3
  call void @interval_tree_remove(ptr noundef %15, ptr noundef %17)
  br label %18

18:                                               ; preds = %2
  %19 = load ptr, ptr %6, align 8
  %20 = getelementptr inbounds nuw %struct.TempOptInfo, ptr %19, i32 0, i32 3
  %21 = getelementptr inbounds nuw %struct.anon.3, ptr %20, i32 0, i32 0
  %22 = load ptr, ptr %21, align 8
  %23 = load ptr, ptr %4, align 8
  %24 = icmp eq ptr %22, %23
  br i1 %24, label %25, label %52

25:                                               ; preds = %18
  br label %26

26:                                               ; preds = %25
  call void @llvm.lifetime.start.p0(i64 8, ptr %7) #13
  %27 = load ptr, ptr %6, align 8
  %28 = getelementptr inbounds nuw %struct.TempOptInfo, ptr %27, i32 0, i32 3
  %29 = getelementptr inbounds nuw %struct.anon.3, ptr %28, i32 0, i32 0
  %30 = load ptr, ptr %29, align 8
  store ptr %30, ptr %7, align 8
  %31 = load ptr, ptr %7, align 8
  %32 = getelementptr inbounds nuw %struct.MemCopyInfo, ptr %31, i32 0, i32 1
  %33 = getelementptr inbounds nuw %struct.anon.4, ptr %32, i32 0, i32 0
  %34 = load ptr, ptr %33, align 8
  %35 = load ptr, ptr %6, align 8
  %36 = getelementptr inbounds nuw %struct.TempOptInfo, ptr %35, i32 0, i32 3
  %37 = getelementptr inbounds nuw %struct.anon.3, ptr %36, i32 0, i32 0
  store ptr %34, ptr %37, align 8
  %38 = icmp eq ptr %34, null
  br i1 %38, label %39, label %46

39:                                               ; preds = %26
  %40 = load ptr, ptr %6, align 8
  %41 = getelementptr inbounds nuw %struct.TempOptInfo, ptr %40, i32 0, i32 3
  %42 = getelementptr inbounds nuw %struct.anon.3, ptr %41, i32 0, i32 0
  %43 = load ptr, ptr %6, align 8
  %44 = getelementptr inbounds nuw %struct.TempOptInfo, ptr %43, i32 0, i32 3
  %45 = getelementptr inbounds nuw %struct.anon.3, ptr %44, i32 0, i32 1
  store ptr %42, ptr %45, align 8
  br label %46

46:                                               ; preds = %39, %26
  %47 = load ptr, ptr %7, align 8
  %48 = getelementptr inbounds nuw %struct.MemCopyInfo, ptr %47, i32 0, i32 1
  %49 = getelementptr inbounds nuw %struct.anon.4, ptr %48, i32 0, i32 0
  store ptr null, ptr %49, align 8
  call void @llvm.lifetime.end.p0(i64 8, ptr %7) #13
  br label %50

50:                                               ; preds = %46
  br label %51

51:                                               ; preds = %50
  br label %92

52:                                               ; preds = %18
  call void @llvm.lifetime.start.p0(i64 8, ptr %8) #13
  %53 = load ptr, ptr %6, align 8
  %54 = getelementptr inbounds nuw %struct.TempOptInfo, ptr %53, i32 0, i32 3
  %55 = getelementptr inbounds nuw %struct.anon.3, ptr %54, i32 0, i32 0
  %56 = load ptr, ptr %55, align 8
  store ptr %56, ptr %8, align 8
  br label %57

57:                                               ; preds = %64, %52
  %58 = load ptr, ptr %8, align 8
  %59 = getelementptr inbounds nuw %struct.MemCopyInfo, ptr %58, i32 0, i32 1
  %60 = getelementptr inbounds nuw %struct.anon.4, ptr %59, i32 0, i32 0
  %61 = load ptr, ptr %60, align 8
  %62 = load ptr, ptr %4, align 8
  %63 = icmp ne ptr %61, %62
  br i1 %63, label %64, label %69

64:                                               ; preds = %57
  %65 = load ptr, ptr %8, align 8
  %66 = getelementptr inbounds nuw %struct.MemCopyInfo, ptr %65, i32 0, i32 1
  %67 = getelementptr inbounds nuw %struct.anon.4, ptr %66, i32 0, i32 0
  %68 = load ptr, ptr %67, align 8
  store ptr %68, ptr %8, align 8
  br label %57, !llvm.loop !19

69:                                               ; preds = %57
  %70 = load ptr, ptr %8, align 8
  %71 = getelementptr inbounds nuw %struct.MemCopyInfo, ptr %70, i32 0, i32 1
  %72 = getelementptr inbounds nuw %struct.anon.4, ptr %71, i32 0, i32 0
  %73 = load ptr, ptr %72, align 8
  %74 = getelementptr inbounds nuw %struct.MemCopyInfo, ptr %73, i32 0, i32 1
  %75 = getelementptr inbounds nuw %struct.anon.4, ptr %74, i32 0, i32 0
  %76 = load ptr, ptr %75, align 8
  %77 = load ptr, ptr %8, align 8
  %78 = getelementptr inbounds nuw %struct.MemCopyInfo, ptr %77, i32 0, i32 1
  %79 = getelementptr inbounds nuw %struct.anon.4, ptr %78, i32 0, i32 0
  store ptr %76, ptr %79, align 8
  %80 = icmp eq ptr %76, null
  br i1 %80, label %81, label %88

81:                                               ; preds = %69
  %82 = load ptr, ptr %8, align 8
  %83 = getelementptr inbounds nuw %struct.MemCopyInfo, ptr %82, i32 0, i32 1
  %84 = getelementptr inbounds nuw %struct.anon.4, ptr %83, i32 0, i32 0
  %85 = load ptr, ptr %6, align 8
  %86 = getelementptr inbounds nuw %struct.TempOptInfo, ptr %85, i32 0, i32 3
  %87 = getelementptr inbounds nuw %struct.anon.3, ptr %86, i32 0, i32 1
  store ptr %84, ptr %87, align 8
  br label %88

88:                                               ; preds = %81, %69
  %89 = load ptr, ptr %4, align 8
  %90 = getelementptr inbounds nuw %struct.MemCopyInfo, ptr %89, i32 0, i32 1
  %91 = getelementptr inbounds nuw %struct.anon.4, ptr %90, i32 0, i32 0
  store ptr null, ptr %91, align 8
  call void @llvm.lifetime.end.p0(i64 8, ptr %8) #13
  br label %92

92:                                               ; preds = %88, %51
  br label %93

93:                                               ; preds = %92
  br label %94

94:                                               ; preds = %93
  br label %95

95:                                               ; preds = %94
  %96 = load ptr, ptr %4, align 8
  %97 = getelementptr inbounds nuw %struct.MemCopyInfo, ptr %96, i32 0, i32 1
  %98 = getelementptr inbounds nuw %struct.anon.4, ptr %97, i32 0, i32 0
  store ptr null, ptr %98, align 8
  %99 = load ptr, ptr %4, align 8
  %100 = load ptr, ptr %3, align 8
  %101 = getelementptr inbounds nuw %struct.OptContext, ptr %100, i32 0, i32 4
  %102 = getelementptr inbounds nuw %struct.anon, ptr %101, i32 0, i32 1
  %103 = load ptr, ptr %102, align 8
  store ptr %99, ptr %103, align 8
  %104 = load ptr, ptr %4, align 8
  %105 = getelementptr inbounds nuw %struct.MemCopyInfo, ptr %104, i32 0, i32 1
  %106 = getelementptr inbounds nuw %struct.anon.4, ptr %105, i32 0, i32 0
  %107 = load ptr, ptr %3, align 8
  %108 = getelementptr inbounds nuw %struct.OptContext, ptr %107, i32 0, i32 4
  %109 = getelementptr inbounds nuw %struct.anon, ptr %108, i32 0, i32 1
  store ptr %106, ptr %109, align 8
  br label %110

110:                                              ; preds = %95
  br label %111

111:                                              ; preds = %110
  call void @llvm.lifetime.end.p0(i64 8, ptr %6) #13
  call void @llvm.lifetime.end.p0(i64 8, ptr %5) #13
  ret void
}

; Function Attrs: nounwind sspstrong uwtable
define internal ptr @mem_copy_first(ptr noundef %0, i64 noundef %1, i64 noundef %2) #0 {
  %4 = alloca ptr, align 8
  %5 = alloca i64, align 8
  %6 = alloca i64, align 8
  %7 = alloca ptr, align 8
  %8 = alloca ptr, align 8
  %9 = alloca ptr, align 8
  store ptr %0, ptr %4, align 8
  store i64 %1, ptr %5, align 8
  store i64 %2, ptr %6, align 8
  call void @llvm.lifetime.start.p0(i64 8, ptr %7) #13
  %10 = load ptr, ptr %4, align 8
  %11 = getelementptr inbounds nuw %struct.OptContext, ptr %10, i32 0, i32 3
  %12 = load i64, ptr %5, align 8
  %13 = load i64, ptr %6, align 8
  %14 = call ptr @interval_tree_iter_first(ptr noundef %11, i64 noundef %12, i64 noundef %13)
  store ptr %14, ptr %7, align 8
  %15 = load ptr, ptr %7, align 8
  %16 = icmp ne ptr %15, null
  br i1 %16, label %17, label %22

17:                                               ; preds = %3
  call void @llvm.lifetime.start.p0(i64 8, ptr %8) #13
  %18 = load ptr, ptr %7, align 8
  store ptr %18, ptr %8, align 8
  %19 = load ptr, ptr %8, align 8
  %20 = getelementptr inbounds i8, ptr %19, i64 0
  store ptr %20, ptr %9, align 8
  call void @llvm.lifetime.end.p0(i64 8, ptr %8) #13
  %21 = load ptr, ptr %9, align 8
  br label %23

22:                                               ; preds = %3
  br label %23

23:                                               ; preds = %22, %17
  %24 = phi ptr [ %21, %17 ], [ null, %22 ]
  call void @llvm.lifetime.end.p0(i64 8, ptr %7) #13
  ret ptr %24
}

; Function Attrs: inlinehint nounwind sspstrong uwtable
define internal zeroext i1 @interval_tree_is_empty(ptr noundef %0) #3 {
  %2 = alloca ptr, align 8
  store ptr %0, ptr %2, align 8
  %3 = load ptr, ptr %2, align 8
  %4 = getelementptr inbounds nuw %struct.RBRootLeftCached, ptr %3, i32 0, i32 0
  %5 = getelementptr inbounds nuw %struct.RBRoot, ptr %4, i32 0, i32 0
  %6 = load ptr, ptr %5, align 8
  %7 = icmp eq ptr %6, null
  ret i1 %7
}

; Function Attrs: inlinehint nounwind sspstrong uwtable
define internal i64 @temp_arg(ptr noundef %0) #3 {
  %2 = alloca ptr, align 8
  store ptr %0, ptr %2, align 8
  %3 = load ptr, ptr %2, align 8
  %4 = ptrtoint ptr %3 to i64
  ret i64 %4
}

; Function Attrs: inlinehint nounwind sspstrong uwtable
define internal ptr @tcgv_ptr_temp(ptr noundef %0) #3 {
  %2 = alloca ptr, align 8
  store ptr %0, ptr %2, align 8
  %3 = load ptr, ptr %2, align 8
  %4 = call ptr @tcgv_i32_temp(ptr noundef %3)
  ret ptr %4
}

; Function Attrs: nounwind sspstrong uwtable
define internal void @remove_mem_copy_in(ptr noundef %0, i64 noundef %1, i64 noundef %2) #0 {
  %4 = alloca ptr, align 8
  %5 = alloca i64, align 8
  %6 = alloca i64, align 8
  %7 = alloca ptr, align 8
  %8 = alloca i32, align 4
  store ptr %0, ptr %4, align 8
  store i64 %1, ptr %5, align 8
  store i64 %2, ptr %6, align 8
  br label %9

9:                                                ; preds = %3, %22
  call void @llvm.lifetime.start.p0(i64 8, ptr %7) #13
  %10 = load ptr, ptr %4, align 8
  %11 = load i64, ptr %5, align 8
  %12 = load i64, ptr %6, align 8
  %13 = call ptr @mem_copy_first(ptr noundef %10, i64 noundef %11, i64 noundef %12)
  store ptr %13, ptr %7, align 8
  %14 = load ptr, ptr %7, align 8
  %15 = icmp ne ptr %14, null
  br i1 %15, label %17, label %16

16:                                               ; preds = %9
  store i32 3, ptr %8, align 4
  br label %20

17:                                               ; preds = %9
  %18 = load ptr, ptr %4, align 8
  %19 = load ptr, ptr %7, align 8
  call void @remove_mem_copy(ptr noundef %18, ptr noundef %19)
  store i32 0, ptr %8, align 4
  br label %20

20:                                               ; preds = %17, %16
  call void @llvm.lifetime.end.p0(i64 8, ptr %7) #13
  %21 = load i32, ptr %8, align 4
  switch i32 %21, label %24 [
    i32 0, label %22
    i32 3, label %23
  ]

22:                                               ; preds = %20
  br label %9

23:                                               ; preds = %20
  ret void

24:                                               ; preds = %20
  unreachable
}

; Function Attrs: inlinehint nounwind sspstrong uwtable
define internal i32 @tcg_type_size(i32 noundef %0) #3 {
  %2 = alloca i32, align 4
  %3 = alloca i32, align 4
  store i32 %0, ptr %2, align 4
  call void @llvm.lifetime.start.p0(i64 4, ptr %3) #13
  %4 = load i32, ptr %2, align 4
  store i32 %4, ptr %3, align 4
  %5 = load i32, ptr %3, align 4
  %6 = icmp uge i32 %5, 3
  br i1 %6, label %7, label %17

7:                                                ; preds = %1
  br label %8

8:                                                ; preds = %7
  %9 = load i32, ptr %3, align 4
  %10 = icmp ult i32 %9, 6
  br i1 %10, label %12, label %11

11:                                               ; preds = %8
  unreachable

12:                                               ; preds = %8
  br label %13

13:                                               ; preds = %12
  br label %14

14:                                               ; preds = %13
  %15 = load i32, ptr %3, align 4
  %16 = sub i32 %15, 2
  store i32 %16, ptr %3, align 4
  br label %17

17:                                               ; preds = %14, %1
  %18 = load i32, ptr %3, align 4
  %19 = shl i32 4, %18
  call void @llvm.lifetime.end.p0(i64 4, ptr %3) #13
  ret i32 %19
}

; Function Attrs: nounwind sspstrong uwtable
define internal void @remove_mem_copy_all(ptr noundef %0) #0 {
  %2 = alloca ptr, align 8
  store ptr %0, ptr %2, align 8
  %3 = load ptr, ptr %2, align 8
  call void @remove_mem_copy_in(ptr noundef %3, i64 noundef 0, i64 noundef -1)
  br label %4

4:                                                ; preds = %1
  %5 = load ptr, ptr %2, align 8
  %6 = getelementptr inbounds nuw %struct.OptContext, ptr %5, i32 0, i32 3
  %7 = call zeroext i1 @interval_tree_is_empty(ptr noundef %6)
  br i1 %7, label %9, label %8

8:                                                ; preds = %4
  unreachable

9:                                                ; preds = %4
  br label %10

10:                                               ; preds = %9
  ret void
}

; Function Attrs: inlinehint nounwind sspstrong uwtable
define internal i64 @tcgv_ptr_arg(ptr noundef %0) #3 {
  %2 = alloca ptr, align 8
  store ptr %0, ptr %2, align 8
  %3 = load ptr, ptr %2, align 8
  %4 = call ptr @tcgv_ptr_temp(ptr noundef %3)
  %5 = call i64 @temp_arg(ptr noundef %4)
  ret i64 %5
}

; Function Attrs: nounwind sspstrong uwtable
define internal zeroext i1 @fold_tcg_st(ptr noundef %0, ptr noundef %1) #0 {
  %3 = alloca i1, align 1
  %4 = alloca ptr, align 8
  %5 = alloca ptr, align 8
  %6 = alloca i64, align 8
  %7 = alloca i64, align 8
  %8 = alloca i32, align 4
  store ptr %0, ptr %4, align 8
  store ptr %1, ptr %5, align 8
  call void @llvm.lifetime.start.p0(i64 8, ptr %6) #13
  %9 = load ptr, ptr %5, align 8
  %10 = getelementptr inbounds nuw %struct.TCGOp, ptr %9, i32 0, i32 4
  %11 = getelementptr inbounds [0 x i64], ptr %10, i64 0, i64 2
  %12 = load i64, ptr %11, align 8
  store i64 %12, ptr %6, align 8
  call void @llvm.lifetime.start.p0(i64 8, ptr %7) #13
  store i64 0, ptr %7, align 8, !annotation !4
  %13 = load ptr, ptr %5, align 8
  %14 = getelementptr inbounds nuw %struct.TCGOp, ptr %13, i32 0, i32 4
  %15 = getelementptr inbounds [0 x i64], ptr %14, i64 0, i64 1
  %16 = load i64, ptr %15, align 8
  %17 = load ptr, ptr @tcg_env, align 8
  %18 = call i64 @tcgv_ptr_arg(ptr noundef %17)
  %19 = icmp ne i64 %16, %18
  br i1 %19, label %20, label %22

20:                                               ; preds = %2
  %21 = load ptr, ptr %4, align 8
  call void @remove_mem_copy_all(ptr noundef %21)
  store i1 true, ptr %3, align 1
  store i32 1, ptr %8, align 4
  br label %47

22:                                               ; preds = %2
  %23 = load ptr, ptr %5, align 8
  %24 = load i32, ptr %23, align 8
  %25 = and i32 %24, 255
  switch i32 %25, label %37 [
    i32 14, label %26
    i32 74, label %26
    i32 15, label %27
    i32 75, label %27
    i32 76, label %28
    i32 16, label %28
    i32 77, label %29
    i32 153, label %30
  ]

26:                                               ; preds = %22, %22
  store i64 0, ptr %7, align 8
  br label %41

27:                                               ; preds = %22, %22
  store i64 1, ptr %7, align 8
  br label %41

28:                                               ; preds = %22, %22
  store i64 3, ptr %7, align 8
  br label %41

29:                                               ; preds = %22
  store i64 7, ptr %7, align 8
  br label %41

30:                                               ; preds = %22
  %31 = load ptr, ptr %4, align 8
  %32 = getelementptr inbounds nuw %struct.OptContext, ptr %31, i32 0, i32 5
  %33 = load i32, ptr %32, align 8
  %34 = call i32 @tcg_type_size(i32 noundef %33)
  %35 = sub i32 %34, 1
  %36 = sext i32 %35 to i64
  store i64 %36, ptr %7, align 8
  br label %41

37:                                               ; preds = %22
  br label %38

38:                                               ; preds = %37
  call void @g_assertion_message_expr(ptr noundef null, ptr noundef @.str, i32 noundef 2785, ptr noundef @__func__.fold_tcg_st, ptr noundef null) #14
  unreachable

39:                                               ; No predecessors!
  br label %40

40:                                               ; preds = %39
  br label %41

41:                                               ; preds = %40, %30, %29, %28, %27, %26
  %42 = load ptr, ptr %4, align 8
  %43 = load i64, ptr %6, align 8
  %44 = load i64, ptr %6, align 8
  %45 = load i64, ptr %7, align 8
  %46 = add i64 %44, %45
  call void @remove_mem_copy_in(ptr noundef %42, i64 noundef %43, i64 noundef %46)
  store i1 true, ptr %3, align 1
  store i32 1, ptr %8, align 4
  br label %47

47:                                               ; preds = %41, %20
  call void @llvm.lifetime.end.p0(i64 8, ptr %7) #13
  call void @llvm.lifetime.end.p0(i64 8, ptr %6) #13
  %48 = load i1, ptr %3, align 1
  ret i1 %48
}