; Function Attrs: nounwind sspstrong uwtable
define internal fastcc void @fold_tcg_st(ptr noundef nonnull %0, ptr noundef nonnull readonly captures(none) %1) unnamed_addr #0 {
  %3 = getelementptr inbounds nuw i8, ptr %1, i64 48
  %4 = load i64, ptr %3, align 8
  %5 = getelementptr inbounds nuw i8, ptr %1, i64 40
  %6 = load i64, ptr %5, align 8
  %7 = load ptr, ptr @tcg_env, align 8
  %8 = tail call align 8 ptr @llvm.threadlocal.address.p0(ptr align 8 @tcg_ctx)
  %9 = load ptr, ptr %8, align 8
  %10 = ptrtoint ptr %7 to i64
  %11 = getelementptr inbounds nuw i8, ptr %9, i64 %10
  %12 = ptrtoint ptr %11 to i64
  %.not = icmp eq i64 %6, %12
  br i1 %.not, label %46, label %13

13:                                               ; preds = %2
  %14 = getelementptr inbounds nuw i8, ptr %0, i64 80
  %15 = tail call ptr @interval_tree_iter_first(ptr noundef nonnull %14, i64 noundef 0, i64 noundef -1) #9
  %.not10.i.i = icmp eq ptr %15, null
  br i1 %.not10.i.i, label %remove_mem_copy_all.exit, label %.lr.ph.i.i

.lr.ph.i.i:                                       ; preds = %13
  %16 = getelementptr inbounds nuw i8, ptr %0, i64 104
  br label %17

17:                                               ; preds = %41, %.lr.ph.i.i
  %18 = phi ptr [ %15, %.lr.ph.i.i ], [ %44, %41 ]
  %19 = getelementptr inbounds nuw i8, ptr %18, i64 56
  %20 = load ptr, ptr %19, align 8
  %21 = getelementptr i8, ptr %20, i64 48
  %.val.i.i.i = load ptr, ptr %21, align 8
  tail call void @interval_tree_remove(ptr noundef nonnull %18, ptr noundef nonnull %14) #9
  %22 = getelementptr inbounds nuw i8, ptr %.val.i.i.i, i64 24
  %23 = load ptr, ptr %22, align 8
  %24 = icmp eq ptr %23, %18
  br i1 %24, label %25, label %.preheader.i.i.i

25:                                               ; preds = %17
  %26 = getelementptr inbounds nuw i8, ptr %23, i64 48
  %27 = load ptr, ptr %26, align 8
  store ptr %27, ptr %22, align 8
  %28 = icmp eq ptr %27, null
  br i1 %28, label %29, label %31

29:                                               ; preds = %25
  %30 = getelementptr inbounds nuw i8, ptr %.val.i.i.i, i64 32
  store ptr %22, ptr %30, align 8
  br label %31

31:                                               ; preds = %29, %25
  store ptr null, ptr %26, align 8
  br label %41

.preheader.i.i.i:                                 ; preds = %17, %.preheader.i.i.i
  %.0.i.i.i = phi ptr [ %33, %.preheader.i.i.i ], [ %23, %17 ]
  %32 = getelementptr inbounds nuw i8, ptr %.0.i.i.i, i64 48
  %33 = load ptr, ptr %32, align 8
  %.not.i.i.i = icmp eq ptr %33, %18
  br i1 %.not.i.i.i, label %34, label %.preheader.i.i.i, !llvm.loop !13

34:                                               ; preds = %.preheader.i.i.i
  %35 = getelementptr inbounds nuw i8, ptr %.0.i.i.i, i64 48
  %36 = getelementptr inbounds nuw i8, ptr %33, i64 48
  %37 = load ptr, ptr %36, align 8
  store ptr %37, ptr %35, align 8
  %38 = icmp eq ptr %37, null
  br i1 %38, label %39, label %41

39:                                               ; preds = %34
  %40 = getelementptr inbounds nuw i8, ptr %.val.i.i.i, i64 32
  store ptr %35, ptr %40, align 8
  br label %41

41:                                               ; preds = %39, %34, %31
  %42 = getelementptr inbounds nuw i8, ptr %18, i64 48
  store ptr null, ptr %42, align 8
  %43 = load ptr, ptr %16, align 8
  store ptr %18, ptr %43, align 8
  store ptr %42, ptr %16, align 8
  %44 = tail call ptr @interval_tree_iter_first(ptr noundef nonnull %14, i64 noundef 0, i64 noundef -1) #9
  %.not.i.i = icmp eq ptr %44, null
  br i1 %.not.i.i, label %remove_mem_copy_all.exit, label %17

remove_mem_copy_all.exit:                         ; preds = %41, %13
  %.val.i = load ptr, ptr %14, align 8
  %45 = icmp eq ptr %.val.i, null
  tail call void @llvm.assume(i1 %45)
  br label %remove_mem_copy_in.exit

46:                                               ; preds = %2
  %47 = load i32, ptr %1, align 8
  %trunc = trunc i32 %47 to i8
  switch i8 %trunc, label %59 [
    i8 14, label %60
    i8 74, label %60
    i8 15, label %48
    i8 75, label %48
    i8 76, label %49
    i8 16, label %49
    i8 77, label %50
    i8 -103, label %51
  ]

48:                                               ; preds = %46, %46
  br label %60

49:                                               ; preds = %46, %46
  br label %60

50:                                               ; preds = %46
  br label %60

51:                                               ; preds = %46
  %52 = getelementptr inbounds nuw i8, ptr %0, i64 112
  %53 = load i32, ptr %52, align 8
  %54 = icmp ugt i32 %53, 2
  %55 = add nsw i32 %53, -2
  %spec.select.i = select i1 %54, i32 %55, i32 %53
  %56 = shl nuw nsw i32 4, %spec.select.i
  %57 = add nsw i32 %56, -1
  %58 = zext nneg i32 %57 to i64
  br label %60

59:                                               ; preds = %46
  tail call void @g_assertion_message_expr(ptr noundef null, ptr noundef nonnull @.str, i32 noundef 2785, ptr noundef nonnull @__func__.fold_tcg_st, ptr noundef null) #10
  unreachable

60:                                               ; preds = %46, %46, %51, %50, %49, %48
  %.0 = phi i64 [ %58, %51 ], [ 7, %50 ], [ 3, %49 ], [ 1, %48 ], [ 0, %46 ], [ 0, %46 ]
  %61 = add i64 %.0, %4
  %62 = getelementptr inbounds nuw i8, ptr %0, i64 80
  %63 = tail call ptr @interval_tree_iter_first(ptr noundef nonnull %62, i64 noundef %4, i64 noundef %61) #9
  %.not10.i = icmp eq ptr %63, null
  br i1 %.not10.i, label %remove_mem_copy_in.exit, label %.lr.ph.i

.lr.ph.i:                                         ; preds = %60
  %64 = getelementptr inbounds nuw i8, ptr %0, i64 104
  br label %65

65:                                               ; preds = %89, %.lr.ph.i
  %66 = phi ptr [ %63, %.lr.ph.i ], [ %92, %89 ]
  %67 = getelementptr inbounds nuw i8, ptr %66, i64 56
  %68 = load ptr, ptr %67, align 8
  %69 = getelementptr i8, ptr %68, i64 48
  %.val.i.i = load ptr, ptr %69, align 8
  tail call void @interval_tree_remove(ptr noundef nonnull %66, ptr noundef nonnull %62) #9
  %70 = getelementptr inbounds nuw i8, ptr %.val.i.i, i64 24
  %71 = load ptr, ptr %70, align 8
  %72 = icmp eq ptr %71, %66
  br i1 %72, label %73, label %.preheader.i.i

73:                                               ; preds = %65
  %74 = getelementptr inbounds nuw i8, ptr %71, i64 48
  %75 = load ptr, ptr %74, align 8
  store ptr %75, ptr %70, align 8
  %76 = icmp eq ptr %75, null
  br i1 %76, label %77, label %79

77:                                               ; preds = %73
  %78 = getelementptr inbounds nuw i8, ptr %.val.i.i, i64 32
  store ptr %70, ptr %78, align 8
  br label %79

79:                                               ; preds = %77, %73
  store ptr null, ptr %74, align 8
  br label %89

.preheader.i.i:                                   ; preds = %65, %.preheader.i.i
  %.0.i.i = phi ptr [ %81, %.preheader.i.i ], [ %71, %65 ]
  %80 = getelementptr inbounds nuw i8, ptr %.0.i.i, i64 48
  %81 = load ptr, ptr %80, align 8
  %.not.i.i10 = icmp eq ptr %81, %66
  br i1 %.not.i.i10, label %82, label %.preheader.i.i, !llvm.loop !13

82:                                               ; preds = %.preheader.i.i
  %83 = getelementptr inbounds nuw i8, ptr %.0.i.i, i64 48
  %84 = getelementptr inbounds nuw i8, ptr %81, i64 48
  %85 = load ptr, ptr %84, align 8
  store ptr %85, ptr %83, align 8
  %86 = icmp eq ptr %85, null
  br i1 %86, label %87, label %89

87:                                               ; preds = %82
  %88 = getelementptr inbounds nuw i8, ptr %.val.i.i, i64 32
  store ptr %83, ptr %88, align 8
  br label %89

89:                                               ; preds = %87, %82, %79
  %90 = getelementptr inbounds nuw i8, ptr %66, i64 48
  store ptr null, ptr %90, align 8
  %91 = load ptr, ptr %64, align 8
  store ptr %66, ptr %91, align 8
  store ptr %90, ptr %64, align 8
  %92 = tail call ptr @interval_tree_iter_first(ptr noundef nonnull %62, i64 noundef %4, i64 noundef %61) #9
  %.not.i = icmp eq ptr %92, null
  br i1 %.not.i, label %remove_mem_copy_in.exit, label %65

remove_mem_copy_in.exit:                          ; preds = %89, %60, %remove_mem_copy_all.exit
  ret void
}